Certificate:
    Data:
        Version: 3 (0x2)
        Serial Number: 35330520514619 (0x20220720003b)
        Signature Algorithm: sha256WithRSAEncryption
        Issuer: C=BR, ST=Parana, L=Sao Jose dos Pinhais, O=Security, OU=Web Server, CN=My CA
        Validity
            Not Before: Jun 11 01:33:59 2025 GMT
            Not After : Jun 11 01:33:59 2026 GMT
        Subject: C=BR, ST=Parana, L=Sao Jose dos Pinhais, O=Security, OU=Web Server, CN=brew.savvyaxl.com.br
        Subject Public Key Info:
            Public Key Algorithm: rsaEncryption
                Public-Key: (3072 bit)
                Modulus:
                    00:a4:4f:be:c0:89:77:a2:5c:48:ae:7b:52:31:5e:
                    86:fd:c7:4d:ea:63:12:64:3b:b5:0c:10:c2:85:f8:
                    9a:a2:2e:ce:b0:2f:e4:4e:ae:c1:89:0c:8a:c3:ae:
                    72:81:cb:9f:cb:d1:be:70:1d:03:fc:f9:91:d6:4b:
                    67:d1:e7:1d:1d:16:15:72:3d:fd:4f:f7:cf:f2:b5:
                    1b:00:71:43:35:d9:5f:ec:fd:5b:5d:26:db:e5:b6:
                    0e:90:c2:e6:dd:4d:53:be:2a:c2:ab:34:b5:6d:71:
                    72:47:79:30:31:ce:38:73:e0:64:b2:81:1c:5c:3d:
                    b1:bf:de:8b:a7:13:5c:70:00:e9:31:aa:ab:26:ab:
                    7c:a1:6d:b2:bc:0a:6a:b7:62:c2:18:2f:a4:46:94:
                    e0:a8:49:a2:c6:6a:7b:a1:45:70:24:3a:8f:a2:6e:
                    9e:d3:c4:1f:65:2a:70:94:4d:c1:1a:cc:54:6c:f9:
                    a1:a8:25:7c:89:67:b0:0d:d6:0f:d3:74:5a:f9:70:
                    fc:c4:03:cd:fd:b1:2e:00:1e:2e:be:fd:be:bd:eb:
                    5d:57:48:c3:91:1d:5b:19:a3:d7:fd:e2:b8:35:28:
                    ae:ed:80:56:fb:f0:09:34:0e:3d:30:3c:a9:e6:3f:
                    5b:98:48:a4:9c:59:7a:44:dc:1b:51:47:37:bf:ea:
                    39:e1:2d:d1:18:4f:50:16:26:81:23:f1:fe:df:65:
                    30:b5:77:fc:48:38:80:94:5f:5a:0c:d3:40:d7:ee:
                    15:d5:77:26:e0:6b:62:99:9e:bb:ad:5b:bd:a3:c2:
                    29:a4:00:e1:c5:80:6b:5b:64:28:64:b2:94:90:fe:
                    9f:4a:15:32:5a:b9:9d:29:c3:13:00:8b:1b:e2:2c:
                    66:e9:a3:bf:31:96:69:93:67:85:ad:d3:67:93:08:
                    58:df:14:ed:4f:2d:53:00:6b:0b:94:c3:f3:8e:b5:
                    27:dd:bf:ee:8f:26:c1:40:76:da:6f:d5:be:35:c9:
                    bc:6b:b7:aa:bf:12:9f:dd:e2:19
                Exponent: 65537 (0x10001)
        X509v3 extensions:
            X509v3 Subject Alternative Name: 
                DNS:brew.savvyaxl.com.br, DNS:repos.nfs.info
            X509v3 Basic Constraints: 
                CA:FALSE
            X509v3 Key Usage: 
                Digital Signature, Non Repudiation, Key Encipherment
            X509v3 Extended Key Usage: 
                TLS Web Server Authentication
            X509v3 Subject Key Identifier: 
                CE:44:9D:60:10:57:63:A6:99:B9:90:A4:A2:6F:AA:C2:84:78:A4:DA
            X509v3 Authority Key Identifier: 
                69:AA:BA:3D:89:30:F0:7B:71:CB:14:9E:E8:B9:04:51:17:CF:8C:FA
    Signature Algorithm: sha256WithRSAEncryption
    Signature Value:
        7c:d6:2c:6d:1d:75:1c:34:a2:26:40:00:f6:f9:d8:5b:f0:61:
        0d:ae:20:71:4f:b4:6f:31:9e:85:ea:a0:7e:ec:5e:c3:4f:d7:
        24:1c:f5:f9:82:6f:2f:bc:5a:b5:35:5f:30:b8:e5:b6:2e:53:
        a2:e5:92:9d:cd:4a:50:14:e0:5d:83:35:89:de:60:c9:9e:6f:
        7c:fb:90:80:35:2f:4c:1b:b1:40:57:d0:fb:9c:c6:85:d4:53:
        a2:51:10:cd:d5:2c:4c:dc:dc:4d:82:6f:c9:ca:2d:0f:92:b7:
        ea:37:e3:a7:73:a0:6e:4c:cb:03:12:58:cc:8f:18:5a:20:0f:
        89:5b:b8:a3:59:bb:44:3a:cf:27:c4:ba:e3:9c:2e:b5:18:e3:
        c4:a9:5c:7f:a5:60:4e:7a:0c:5b:bf:f5:98:a1:39:85:64:91:
        ba:6d:e0:de:6f:46:c9:fb:e2:07:d1:ff:96:22:83:27:16:a2:
        6f:4b:ac:7e:a5:0f:3f:1f:f4:19:92:dc:02:dd:46:cc:71:57:
        23:a8:09:21:80:21:de:62:34:e4:07:62:32:0d:6b:4e:78:1d:
        6c:35:ea:33:0f:ae:de:fc:1e:a6:0a:5f:51:e1:08:29:79:8c:
        74:0a:d7:70:fe:c8:77:16:7a:6c:fd:ce:dc:43:0d:8e:b0:ec:
        c8:00:dc:b4:d4:30:3f:5a:3a:6c:71:40:6b:5c:61:b1:23:85:
        38:db:ef:9e:79:e3:96:45:65:aa:31:2b:2e:9f:88:7d:2c:22:
        d2:81:b4:0c:50:af:ec:63:b6:0a:22:a6:8d:23:d8:04:1c:73:
        a2:23:e4:c7:bb:6c:41:79:18:24:3b:d3:da:53:3d:2a:00:9e:
        0a:d6:3a:71:74:39:36:a3:32:bb:c8:d7:a5:51:a1:9b:86:28:
        25:63:a6:3a:06:c0:1c:7f:be:f5:39:38:60:3f:73:83:ce:16:
        7f:fa:47:c3:da:28:9d:6d:fc:91:14:f6:7d:88:c3:07:4b:b0:
        0c:22:a9:0a:23:47:ac:25:4b:14:95:2d:19:57:af:37:11:5b:
        6b:c1:01:6e:ca:dd:f3:a2:41:40:54:59:79:1d:03:ec:2e:d0:
        54:96:4d:b8:d3:ec:db:99:c7:2f:1b:0d:6e:21:43:70:54:c6:
        b2:40:52:97:f5:b0:7c:71:31:50:26:f3:88:c3:e4:36:b3:20:
        e4:91:e7:4e:cf:4f:ea:49:67:11:20:9d:44:54:37:d7:7e:b6:
        0b:ce:b7:a6:76:b7:92:8b:f0:d1:de:8d:e3:2f:5c:13:30:e9:
        3a:d4:04:5e:9a:16:2c:77:f4:c5:82:fe:04:3c:3f:56:90:8f:
        8c:7e:7f:78:63:85:92:78
-----BEGIN CERTIFICATE-----
MIIFnDCCA4SgAwIBAgIGICIHIAA7MA0GCSqGSIb3DQEBCwUAMHUxCzAJBgNVBAYT
AkJSMQ8wDQYDVQQIDAZQYXJhbmExHTAbBgNVBAcMFFNhbyBKb3NlIGRvcyBQaW5o
YWlzMREwDwYDVQQKDAhTZWN1cml0eTETMBEGA1UECwwKV2ViIFNlcnZlcjEOMAwG
A1UEAwwFTXkgQ0EwHhcNMjUwNjExMDEzMzU5WhcNMjYwNjExMDEzMzU5WjCBhDEL
MAkGA1UEBhMCQlIxDzANBgNVBAgMBlBhcmFuYTEdMBsGA1UEBwwUU2FvIEpvc2Ug
ZG9zIFBpbmhhaXMxETAPBgNVBAoMCFNlY3VyaXR5MRMwEQYDVQQLDApXZWIgU2Vy
dmVyMR0wGwYDVQQDDBRicmV3LnNhdnZ5YXhsLmNvbS5icjCCAaIwDQYJKoZIhvcN
AQEBBQADggGPADCCAYoCggGBAKRPvsCJd6JcSK57UjFehv3HTepjEmQ7tQwQwoX4
mqIuzrAv5E6uwYkMisOucoHLn8vRvnAdA/z5kdZLZ9HnHR0WFXI9/U/3z/K1GwBx
QzXZX+z9W10m2+W2DpDC5t1NU74qwqs0tW1xckd5MDHOOHPgZLKBHFw9sb/ei6cT
XHAA6TGqqyarfKFtsrwKardiwhgvpEaU4KhJosZqe6FFcCQ6j6JuntPEH2UqcJRN
wRrMVGz5oaglfIlnsA3WD9N0Wvlw/MQDzf2xLgAeLr79vr3rXVdIw5EdWxmj1/3i
uDUoru2AVvvwCTQOPTA8qeY/W5hIpJxZekTcG1FHN7/qOeEt0RhPUBYmgSPx/t9l
MLV3/Eg4gJRfWgzTQNfuFdV3JuBrYpmeu61bvaPCKaQA4cWAa1tkKGSylJD+n0oV
Mlq5nSnDEwCLG+IsZumjvzGWaZNnha3TZ5MIWN8U7U8tUwBrC5TD8461J92/7o8m
wUB22m/VvjXJvGu3qr8Sn93iGQIDAQABo4GhMIGeMC8GA1UdEQQoMCaCFGJyZXcu
c2F2dnlheGwuY29tLmJygg5yZXBvcy5uZnMuaW5mbzAJBgNVHRMEAjAAMAsGA1Ud
DwQEAwIF4DATBgNVHSUEDDAKBggrBgEFBQcDATAdBgNVHQ4EFgQUzkSdYBBXY6aZ
uZCkom+qwoR4pNowHwYDVR0jBBgwFoAUaaq6PYkw8HtxyxSe6LkEURfPjPowDQYJ
KoZIhvcNAQELBQADggIBAHzWLG0ddRw0oiZAAPb52FvwYQ2uIHFPtG8xnoXqoH7s
XsNP1yQc9fmCby+8WrU1XzC45bYuU6Llkp3NSlAU4F2DNYneYMmeb3z7kIA1L0wb
sUBX0PucxoXUU6JREM3VLEzc3E2Cb8nKLQ+St+o346dzoG5MywMSWMyPGFogD4lb
uKNZu0Q6zyfEuuOcLrUY48SpXH+lYE56DFu/9ZihOYVkkbpt4N5vRsn74gfR/5Yi
gycWom9LrH6lDz8f9BmS3ALdRsxxVyOoCSGAId5iNOQHYjINa054HWw16jMPrt78
HqYKX1HhCCl5jHQK13D+yHcWemz9ztxDDY6w7MgA3LTUMD9aOmxxQGtcYbEjhTjb
755545ZFZaoxKy6fiH0sItKBtAxQr+xjtgoipo0j2AQcc6Ij5Me7bEF5GCQ709pT
PSoAngrWOnF0OTajMrvI16VRoZuGKCVjpjoGwBx/vvU5OGA/c4POFn/6R8PaKJ1t
/JEU9n2IwwdLsAwiqQojR6wlSxSVLRlXrzcRW2vBAW7K3fOiQUBUWXkdA+wu0FSW
TbjT7NuZxy8bDW4hQ3BUxrJAUpf1sHxxMVAm84jD5DazIOSR507PT+pJZxEgnURU
N9d+tgvOt6Z2t5KL8NHejeMvXBMw6TrUBF6aFix39MWC/gQ8P1aQj4x+f3hjhZJ4
-----END CERTIFICATE-----
