Certificate:
    Data:
        Version: 3 (0x2)
        Serial Number: 35330520514617 (0x202207200039)
        Signature Algorithm: sha256WithRSAEncryption
        Issuer: C=BR, ST=Parana, L=Sao Jose dos Pinhais, O=Security, OU=Web Server, CN=My CA
        Validity
            Not Before: Jun 11 01:33:32 2025 GMT
            Not After : Jun 11 01:33:32 2026 GMT
        Subject: C=BR, ST=Parana, L=Sao Jose dos Pinhais, O=Security, OU=Web Server, CN=home.savvyaxl.com.br
        Subject Public Key Info:
            Public Key Algorithm: rsaEncryption
                Public-Key: (3072 bit)
                Modulus:
                    00:d5:e2:be:4c:f2:47:fd:6a:b4:22:b5:07:97:ac:
                    4b:16:7d:ff:7d:57:7d:8d:76:57:37:90:1b:75:8b:
                    cb:97:28:b9:f2:c7:ae:bc:9d:24:57:70:03:9c:df:
                    ff:84:32:7f:5c:a3:37:16:42:ce:69:2b:38:8e:ff:
                    28:9f:7e:d0:15:f1:4d:27:67:b9:4b:d4:a3:bb:bb:
                    16:fc:06:c9:36:21:5c:43:ad:21:c0:86:d3:9f:af:
                    bc:67:46:88:20:01:f9:45:07:8f:ff:62:d8:9f:f1:
                    2a:e0:16:b1:70:55:26:08:ed:66:14:91:a7:7d:0d:
                    f9:e4:f8:4f:00:c0:69:c9:f8:c4:4a:fc:b7:6e:ca:
                    c2:5a:22:85:b2:13:b1:5b:86:3e:77:57:e7:85:17:
                    76:32:1d:85:0f:fc:6c:f3:40:d9:62:71:cb:54:05:
                    2d:5b:4a:91:99:34:a5:eb:73:b0:73:d6:2e:6e:72:
                    8a:3d:e5:f9:78:b0:d0:d4:8f:07:8a:02:35:c5:b8:
                    2f:2e:5e:41:2c:11:b0:81:ed:fc:be:a3:58:b1:67:
                    7b:b3:31:a5:22:19:e6:57:24:a0:36:05:f3:56:9f:
                    0a:3c:f3:9e:c6:ac:5f:10:ed:e7:5e:ae:64:fc:6b:
                    5e:da:3d:0e:15:7a:c8:90:4f:62:80:74:e9:42:8d:
                    47:14:dc:2e:87:7d:3f:1f:e7:fd:ff:0a:da:09:69:
                    c9:89:2f:b7:fa:21:7e:0a:63:da:be:41:ab:6e:17:
                    5f:0d:93:4a:f5:b0:cc:29:91:2d:64:3c:61:55:17:
                    4c:20:8a:ec:67:14:a7:d6:4b:48:5b:ba:c7:79:cd:
                    17:47:38:2d:47:0f:fc:aa:ba:49:1b:d1:04:3f:bb:
                    79:09:cb:fd:ee:c4:e6:f2:ea:b6:6d:87:ed:28:9b:
                    b1:57:e2:70:fd:3f:d6:bc:ce:f3:09:63:50:be:f5:
                    02:28:84:c5:64:ca:a3:be:a7:7f:82:90:63:46:13:
                    a2:54:75:32:2b:79:59:f2:cd:7d
                Exponent: 65537 (0x10001)
        X509v3 extensions:
            X509v3 Subject Alternative Name: 
                DNS:home.savvyaxl.com.br, DNS:*.savvyaxl.com.br
            X509v3 Basic Constraints: 
                CA:FALSE
            X509v3 Key Usage: 
                Digital Signature, Non Repudiation, Key Encipherment
            X509v3 Extended Key Usage: 
                TLS Web Server Authentication
            X509v3 Subject Key Identifier: 
                D3:42:EA:F4:71:C7:C7:04:8C:F3:CE:5A:6E:2E:8A:0C:C2:68:B3:6D
            X509v3 Authority Key Identifier: 
                69:AA:BA:3D:89:30:F0:7B:71:CB:14:9E:E8:B9:04:51:17:CF:8C:FA
    Signature Algorithm: sha256WithRSAEncryption
    Signature Value:
        33:9d:60:a9:ef:89:68:38:b6:40:8c:e4:00:96:86:05:c7:06:
        c6:20:be:1a:cf:21:88:0f:8c:b3:7e:bd:0e:38:6d:bb:67:7c:
        db:03:1c:ec:1b:85:9c:7a:3c:79:da:2b:2b:66:a5:80:04:5b:
        4e:7a:14:52:5f:a2:32:11:10:10:f2:c6:3d:01:6f:7b:15:bc:
        02:38:74:ff:b8:40:10:52:43:b5:27:da:ca:1f:3f:ff:9c:b1:
        6c:45:44:30:53:45:58:7e:b0:8f:d4:0b:11:92:91:06:51:03:
        cc:2c:2d:23:b1:98:a7:5f:c4:d8:bd:5a:56:f4:9f:88:0a:9a:
        a6:67:97:68:03:1c:1a:3a:b2:f6:07:e8:85:60:e5:a1:57:bf:
        37:74:69:3a:06:f5:ef:bf:b2:a2:fa:66:d7:5e:f7:ad:77:04:
        3f:7c:6f:39:3a:3b:1b:11:d3:f4:eb:bd:df:b8:43:0f:4f:8b:
        cc:a0:c1:91:e8:ae:c8:8a:e8:94:8c:c5:98:36:91:9d:38:1f:
        da:ba:34:9b:9e:30:d2:d0:d2:48:be:43:16:fe:8a:ae:a2:bc:
        4f:a4:80:3a:2a:34:56:f2:47:7d:72:3f:0b:0e:19:29:d8:57:
        2b:d0:8e:d1:67:a8:ce:89:74:2e:25:e9:af:c3:ac:4d:2a:dc:
        c9:75:4f:5b:89:9b:67:28:1e:ca:40:d3:06:10:10:f6:4d:e7:
        f4:93:de:a8:eb:74:c8:66:fb:26:f6:a1:69:e6:2a:d2:90:ce:
        20:ce:25:6f:e2:7a:c2:a8:97:30:bf:b0:88:72:72:10:bd:86:
        e3:c3:6b:d6:d9:5a:0a:ec:db:39:b9:df:e5:ba:f5:a8:ed:3d:
        d9:2a:a4:f6:b6:9a:de:d5:2a:51:7d:fa:62:26:3b:60:0e:6a:
        d6:10:11:d7:38:d2:70:11:a3:f3:7a:f6:f5:da:bd:93:36:de:
        01:33:0c:5a:b9:0a:ed:8a:1d:5e:d1:d1:57:3b:38:70:f3:91:
        a5:a5:90:08:af:26:e4:d4:72:c2:05:e1:29:24:c8:ba:d9:c3:
        dc:8a:ad:58:f8:23:6d:db:9c:32:b4:98:66:13:3d:e8:6b:8b:
        3a:db:14:bd:ba:fa:ed:cd:24:34:8d:ed:ff:80:cf:50:f0:b5:
        1e:d6:51:da:7e:5a:e5:47:b7:0d:81:1b:f7:38:1d:89:20:03:
        d8:79:24:ab:35:07:32:52:cc:82:c4:5b:72:28:0e:0a:97:7b:
        50:c5:e6:9b:9d:e6:18:a0:96:49:fc:d9:ec:a9:bc:29:74:90:
        ad:7a:c2:a3:e7:6e:7a:cb:c0:0b:a3:26:3a:0f:d8:fc:2b:4f:
        cf:16:86:9a:32:07:66:8b
-----BEGIN CERTIFICATE-----
MIIFnzCCA4egAwIBAgIGICIHIAA5MA0GCSqGSIb3DQEBCwUAMHUxCzAJBgNVBAYT
AkJSMQ8wDQYDVQQIDAZQYXJhbmExHTAbBgNVBAcMFFNhbyBKb3NlIGRvcyBQaW5o
YWlzMREwDwYDVQQKDAhTZWN1cml0eTETMBEGA1UECwwKV2ViIFNlcnZlcjEOMAwG
A1UEAwwFTXkgQ0EwHhcNMjUwNjExMDEzMzMyWhcNMjYwNjExMDEzMzMyWjCBhDEL
MAkGA1UEBhMCQlIxDzANBgNVBAgMBlBhcmFuYTEdMBsGA1UEBwwUU2FvIEpvc2Ug
ZG9zIFBpbmhhaXMxETAPBgNVBAoMCFNlY3VyaXR5MRMwEQYDVQQLDApXZWIgU2Vy
dmVyMR0wGwYDVQQDDBRob21lLnNhdnZ5YXhsLmNvbS5icjCCAaIwDQYJKoZIhvcN
AQEBBQADggGPADCCAYoCggGBANXivkzyR/1qtCK1B5esSxZ9/31XfY12VzeQG3WL
y5coufLHrrydJFdwA5zf/4Qyf1yjNxZCzmkrOI7/KJ9+0BXxTSdnuUvUo7u7FvwG
yTYhXEOtIcCG05+vvGdGiCAB+UUHj/9i2J/xKuAWsXBVJgjtZhSRp30N+eT4TwDA
acn4xEr8t27KwloihbITsVuGPndX54UXdjIdhQ/8bPNA2WJxy1QFLVtKkZk0petz
sHPWLm5yij3l+Xiw0NSPB4oCNcW4Ly5eQSwRsIHt/L6jWLFne7MxpSIZ5lckoDYF
81afCjzznsasXxDt516uZPxrXto9DhV6yJBPYoB06UKNRxTcLod9Px/n/f8K2glp
yYkvt/ohfgpj2r5Bq24XXw2TSvWwzCmRLWQ8YVUXTCCK7GcUp9ZLSFu6x3nNF0c4
LUcP/Kq6SRvRBD+7eQnL/e7E5vLqtm2H7SibsVficP0/1rzO8wljUL71AiiExWTK
o76nf4KQY0YTolR1Mit5WfLNfQIDAQABo4GkMIGhMDIGA1UdEQQrMCmCFGhvbWUu
c2F2dnlheGwuY29tLmJyghEqLnNhdnZ5YXhsLmNvbS5icjAJBgNVHRMEAjAAMAsG
A1UdDwQEAwIF4DATBgNVHSUEDDAKBggrBgEFBQcDATAdBgNVHQ4EFgQU00Lq9HHH
xwSM885abi6KDMJos20wHwYDVR0jBBgwFoAUaaq6PYkw8HtxyxSe6LkEURfPjPow
DQYJKoZIhvcNAQELBQADggIBADOdYKnviWg4tkCM5ACWhgXHBsYgvhrPIYgPjLN+
vQ44bbtnfNsDHOwbhZx6PHnaKytmpYAEW056FFJfojIREBDyxj0Bb3sVvAI4dP+4
QBBSQ7Un2sofP/+csWxFRDBTRVh+sI/UCxGSkQZRA8wsLSOxmKdfxNi9Wlb0n4gK
mqZnl2gDHBo6svYH6IVg5aFXvzd0aToG9e+/sqL6Ztde9613BD98bzk6OxsR0/Tr
vd+4Qw9Pi8ygwZHorsiK6JSMxZg2kZ04H9q6NJueMNLQ0ki+Qxb+iq6ivE+kgDoq
NFbyR31yPwsOGSnYVyvQjtFnqM6JdC4l6a/DrE0q3Ml1T1uJm2coHspA0wYQEPZN
5/ST3qjrdMhm+yb2oWnmKtKQziDOJW/iesKolzC/sIhychC9huPDa9bZWgrs2zm5
3+W69ajtPdkqpPa2mt7VKlF9+mImO2AOatYQEdc40nARo/N69vXavZM23gEzDFq5
Cu2KHV7R0Vc7OHDzkaWlkAivJuTUcsIF4SkkyLrZw9yKrVj4I23bnDK0mGYTPehr
izrbFL26+u3NJDSN7f+Az1DwtR7WUdp+WuVHtw2BG/c4HYkgA9h5JKs1BzJSzILE
W3IoDgqXe1DF5pud5higlkn82eypvCl0kK16wqPnbnrLwAujJjoP2PwrT88Whpoy
B2aL
-----END CERTIFICATE-----
