Certificate:
    Data:
        Version: 3 (0x2)
        Serial Number: 35330520514593 (0x202207200021)
        Signature Algorithm: sha256WithRSAEncryption
        Issuer: C=BR, ST=Parana, L=Sao Jose dos Pinhais, O=Security, OU=Web Server, CN=My CA
        Validity
            Not Before: Apr 20 22:53:50 2024 GMT
            Not After : Apr 20 22:53:50 2025 GMT
        Subject: C=BR, ST=Parana, L=Sao Jose dos Pinhais, O=Security, OU=Web Server, CN=repos.savvyaxl.com.br
        Subject Public Key Info:
            Public Key Algorithm: rsaEncryption
                Public-Key: (3072 bit)
                Modulus:
                    00:c9:83:2f:0a:56:a9:eb:c4:dc:61:1d:ee:c9:8d:
                    3f:5b:03:c1:dd:ef:99:c4:68:56:b1:87:5a:12:68:
                    c1:9f:a8:84:06:0f:f0:18:4c:eb:a1:a4:01:6b:2c:
                    03:f0:86:4e:d3:bb:57:2c:7d:45:f5:88:78:22:ef:
                    7d:1e:11:4b:c1:f5:cd:08:80:f4:d6:e5:1d:49:57:
                    14:d8:8b:4f:5c:cb:03:a4:84:52:ef:9f:1e:80:9c:
                    7e:ec:87:ed:65:3b:a6:58:e6:37:a5:a5:42:7c:51:
                    51:42:92:a3:82:38:3d:e8:02:e4:78:10:21:22:f3:
                    02:56:24:d2:a6:65:98:c1:ca:6b:65:da:9e:8b:c5:
                    9a:f4:aa:c6:28:63:e3:ce:06:45:0b:16:6f:92:56:
                    44:42:cc:6b:20:55:2c:71:77:76:b8:12:58:a4:14:
                    3f:0c:75:62:cb:70:af:a2:06:6b:ba:e4:4d:c2:a3:
                    f7:50:ff:86:1a:26:cd:20:44:a8:bc:2b:d3:0f:e5:
                    71:67:d2:34:50:e7:1a:21:ca:3e:fa:12:2c:b0:73:
                    e0:49:38:81:e9:fa:8c:f0:30:29:e2:ff:11:54:b5:
                    5f:ed:52:8b:78:11:6b:90:86:00:eb:35:39:e6:cc:
                    74:80:42:78:99:9b:31:27:21:9f:50:a9:47:a6:c2:
                    35:74:f9:e9:3b:77:34:34:51:38:b8:c4:61:64:7c:
                    e4:77:c8:ce:01:39:38:f1:9e:f3:7e:49:18:28:2e:
                    7b:b6:04:bd:27:0b:0e:bc:ab:d8:b6:e2:b0:3b:77:
                    56:cb:3f:da:7f:bb:59:01:88:80:dc:2b:17:c8:98:
                    d8:6f:6e:6f:45:ca:1c:32:05:45:38:6b:26:d4:48:
                    30:4d:66:13:0c:84:21:47:dc:e4:11:33:25:88:d1:
                    7c:12:9d:52:dd:eb:c4:bb:f3:3d:82:e1:09:82:a2:
                    fc:12:52:f2:da:8d:51:04:3c:d0:8f:d6:aa:74:c6:
                    32:0d:9e:f6:0f:28:09:01:53:1f
                Exponent: 65537 (0x10001)
        X509v3 extensions:
            X509v3 Subject Alternative Name: 
                DNS:repos.savvyaxl.com.br, DNS:repos.nfs.info
            X509v3 Basic Constraints: 
                CA:FALSE
            X509v3 Key Usage: 
                Digital Signature, Non Repudiation, Key Encipherment
            X509v3 Extended Key Usage: 
                TLS Web Server Authentication
            X509v3 Subject Key Identifier: 
                49:37:44:9C:9D:7A:86:99:F8:69:B7:D5:7B:31:DD:C2:C6:D6:35:0A
            X509v3 Authority Key Identifier: 
                69:AA:BA:3D:89:30:F0:7B:71:CB:14:9E:E8:B9:04:51:17:CF:8C:FA
    Signature Algorithm: sha256WithRSAEncryption
    Signature Value:
        25:e6:57:90:4b:ad:cc:cb:f9:0b:88:77:d5:b9:70:02:11:94:
        63:33:b0:bd:12:6d:8e:ba:f3:70:c9:38:f4:7b:7a:d6:47:cb:
        4f:27:75:ee:b7:b7:87:10:68:6b:54:11:9a:d2:9b:1c:7d:04:
        09:b8:b4:b9:67:87:8e:b4:f1:8c:7b:93:f9:e2:f7:46:54:07:
        e3:3e:6c:63:03:d3:b1:46:81:ec:9b:50:bf:95:c7:44:81:b8:
        96:8c:43:a1:15:93:b9:08:17:1e:13:a8:43:48:50:ce:59:84:
        c9:05:b7:e4:35:63:f7:62:ca:53:df:11:82:da:64:60:12:97:
        d4:85:73:4b:c8:0a:5d:c9:12:64:a5:00:44:78:82:88:4d:01:
        be:c8:e4:57:67:c8:d4:45:ca:65:92:d7:c7:3e:de:01:15:b5:
        03:9f:bf:16:d7:52:38:c9:3a:ac:7a:1d:2f:75:0d:69:05:f5:
        e4:1a:5f:f3:01:ce:bc:b6:51:3d:a8:a4:67:89:bd:8c:1d:54:
        d7:31:26:82:b1:26:f9:1d:8b:4e:0f:a9:97:11:ca:fb:6a:99:
        e6:98:c3:cf:6d:6a:25:a2:10:b5:73:58:4b:a9:bd:01:cc:fe:
        11:70:c7:22:19:4d:f7:ef:f7:39:61:95:80:34:b8:d6:1a:75:
        20:e0:69:99:e1:65:5d:11:28:58:08:3c:14:98:53:9e:3d:10:
        fd:f2:e1:ef:a7:43:77:c4:ee:cc:ef:cf:d8:e5:89:bb:2e:bb:
        09:59:d9:56:2e:f9:f5:c7:d9:8c:13:45:53:a8:f3:06:96:54:
        e1:03:b1:ed:63:0b:2d:62:f7:63:44:31:49:3b:c1:16:0b:0b:
        ca:bf:98:9f:98:74:78:3e:d1:c0:70:29:83:5d:30:1c:87:1e:
        bc:63:3e:5f:bf:46:8b:10:94:34:ec:cb:e8:7d:5c:7e:7c:e5:
        81:38:72:64:35:9b:86:71:15:b6:59:52:fa:7c:8b:cd:3a:d4:
        61:8a:b4:a4:dd:fa:e7:59:8d:77:5a:59:20:28:16:af:ab:54:
        0c:ce:28:1c:e7:1e:0c:1d:18:84:10:e7:a2:04:77:ca:95:1d:
        90:37:da:a3:30:41:2b:65:40:cc:f2:8b:01:58:5c:4f:25:c7:
        be:4f:12:a4:f6:8a:e8:bd:5f:16:56:b7:28:50:c4:89:0c:b7:
        d2:61:31:c4:dd:0d:db:c3:53:07:dc:0f:51:bb:09:7f:34:41:
        2c:40:b7:46:1e:19:78:c9:22:f8:dd:c7:f0:2c:6f:0c:91:e5:
        9e:c1:eb:b1:60:ca:bc:c8:be:62:a0:c4:86:ce:23:f5:1e:fa:
        e4:38:0c:2f:be:b9:90:5d
-----BEGIN CERTIFICATE-----
MIIFnjCCA4agAwIBAgIGICIHIAAhMA0GCSqGSIb3DQEBCwUAMHUxCzAJBgNVBAYT
AkJSMQ8wDQYDVQQIDAZQYXJhbmExHTAbBgNVBAcMFFNhbyBKb3NlIGRvcyBQaW5o
YWlzMREwDwYDVQQKDAhTZWN1cml0eTETMBEGA1UECwwKV2ViIFNlcnZlcjEOMAwG
A1UEAwwFTXkgQ0EwHhcNMjQwNDIwMjI1MzUwWhcNMjUwNDIwMjI1MzUwWjCBhTEL
MAkGA1UEBhMCQlIxDzANBgNVBAgMBlBhcmFuYTEdMBsGA1UEBwwUU2FvIEpvc2Ug
ZG9zIFBpbmhhaXMxETAPBgNVBAoMCFNlY3VyaXR5MRMwEQYDVQQLDApXZWIgU2Vy
dmVyMR4wHAYDVQQDDBVyZXBvcy5zYXZ2eWF4bC5jb20uYnIwggGiMA0GCSqGSIb3
DQEBAQUAA4IBjwAwggGKAoIBgQDJgy8KVqnrxNxhHe7JjT9bA8Hd75nEaFaxh1oS
aMGfqIQGD/AYTOuhpAFrLAPwhk7Tu1csfUX1iHgi730eEUvB9c0IgPTW5R1JVxTY
i09cywOkhFLvnx6AnH7sh+1lO6ZY5jelpUJ8UVFCkqOCOD3oAuR4ECEi8wJWJNKm
ZZjBymtl2p6LxZr0qsYoY+POBkULFm+SVkRCzGsgVSxxd3a4ElikFD8MdWLLcK+i
Bmu65E3Co/dQ/4YaJs0gRKi8K9MP5XFn0jRQ5xohyj76Eiywc+BJOIHp+ozwMCni
/xFUtV/tUot4EWuQhgDrNTnmzHSAQniZmzEnIZ9QqUemwjV0+ek7dzQ0UTi4xGFk
fOR3yM4BOTjxnvN+SRgoLnu2BL0nCw68q9i24rA7d1bLP9p/u1kBiIDcKxfImNhv
bm9FyhwyBUU4aybUSDBNZhMMhCFH3OQRMyWI0XwSnVLd68S78z2C4QmCovwSUvLa
jVEEPNCP1qp0xjINnvYPKAkBUx8CAwEAAaOBojCBnzAwBgNVHREEKTAnghVyZXBv
cy5zYXZ2eWF4bC5jb20uYnKCDnJlcG9zLm5mcy5pbmZvMAkGA1UdEwQCMAAwCwYD
VR0PBAQDAgXgMBMGA1UdJQQMMAoGCCsGAQUFBwMBMB0GA1UdDgQWBBRJN0ScnXqG
mfhpt9V7Md3CxtY1CjAfBgNVHSMEGDAWgBRpqro9iTDwe3HLFJ7ouQRRF8+M+jAN
BgkqhkiG9w0BAQsFAAOCAgEAJeZXkEutzMv5C4h31blwAhGUYzOwvRJtjrrzcMk4
9Ht61kfLTyd17re3hxBoa1QRmtKbHH0ECbi0uWeHjrTxjHuT+eL3RlQH4z5sYwPT
sUaB7JtQv5XHRIG4loxDoRWTuQgXHhOoQ0hQzlmEyQW35DVj92LKU98RgtpkYBKX
1IVzS8gKXckSZKUARHiCiE0BvsjkV2fI1EXKZZLXxz7eARW1A5+/FtdSOMk6rHod
L3UNaQX15Bpf8wHOvLZRPaikZ4m9jB1U1zEmgrEm+R2LTg+plxHK+2qZ5pjDz21q
JaIQtXNYS6m9Acz+EXDHIhlN9+/3OWGVgDS41hp1IOBpmeFlXREoWAg8FJhTnj0Q
/fLh76dDd8TuzO/P2OWJuy67CVnZVi759cfZjBNFU6jzBpZU4QOx7WMLLWL3Y0Qx
STvBFgsLyr+Yn5h0eD7RwHApg10wHIcevGM+X79GixCUNOzL6H1cfnzlgThyZDWb
hnEVtllS+nyLzTrUYYq0pN3651mNd1pZICgWr6tUDM4oHOceDB0YhBDnogR3ypUd
kDfaozBBK2VAzPKLAVhcTyXHvk8SpPaK6L1fFla3KFDEiQy30mExxN0N28NTB9wP
UbsJfzRBLEC3Rh4ZeMki+N3H8CxvDJHlnsHrsWDKvMi+YqDEhs4j9R765DgML765
kF0=
-----END CERTIFICATE-----
