Certificate:
    Data:
        Version: 3 (0x2)
        Serial Number: 35330520514620 (0x20220720003c)
        Signature Algorithm: sha256WithRSAEncryption
        Issuer: C=BR, ST=Parana, L=Sao Jose dos Pinhais, O=Security, OU=Web Server, CN=My CA
        Validity
            Not Before: Jun 11 02:09:17 2025 GMT
            Not After : Jun 11 02:09:17 2026 GMT
        Subject: C=BR, ST=Parana, L=Sao Jose dos Pinhais, O=Security, OU=Web Server, CN=savvyaxl.com.br
        Subject Public Key Info:
            Public Key Algorithm: rsaEncryption
                Public-Key: (3072 bit)
                Modulus:
                    00:c9:95:ff:6a:1a:4d:57:01:a6:bd:4a:67:d1:74:
                    d2:0a:bd:5b:9a:cc:a0:ff:61:10:73:04:fc:fc:d2:
                    60:e0:21:b9:77:f8:ec:48:bb:ec:f1:18:5d:b2:41:
                    c5:44:45:98:a2:84:bd:e0:62:52:8a:99:66:e8:4f:
                    b3:00:d3:21:50:06:cc:af:39:06:47:ef:bc:1a:22:
                    97:2a:31:b2:a8:28:cd:53:5d:b7:3a:0c:95:91:3c:
                    43:a9:e3:50:6c:f2:94:2b:16:a5:73:71:3a:7e:24:
                    35:0f:9a:2c:23:a5:00:27:c0:fa:32:3e:ed:01:31:
                    b9:77:54:71:a1:f5:b9:21:eb:8a:bb:6d:82:31:cc:
                    8a:23:97:12:e6:cb:b6:33:c1:8d:57:fb:5f:f8:89:
                    b7:fe:cb:99:65:12:4f:29:e4:ff:5e:5d:2c:42:d9:
                    db:ee:bb:94:dc:6d:5e:3a:5a:b9:52:fe:fc:a5:b6:
                    ae:83:1a:ac:63:b7:41:11:ed:e9:df:c9:75:ea:5e:
                    c7:d0:8f:e9:e9:8d:cc:be:85:05:d1:2b:68:68:49:
                    a6:8a:9c:fa:3c:51:ae:a1:8f:ef:b8:9f:18:6c:05:
                    1e:6f:ba:82:7e:b9:5c:1a:a2:3b:ff:d4:a0:c4:ed:
                    64:fd:db:9c:0e:2a:97:64:47:2a:a8:9d:4c:06:9c:
                    ab:97:c6:f3:45:b6:d2:ba:5a:c0:4d:02:b4:fc:64:
                    75:0b:ea:5c:be:5b:18:a1:aa:9d:e4:2b:50:a8:9d:
                    a4:1e:c8:b5:d1:01:34:95:ed:e2:9f:6f:3b:bf:67:
                    25:f0:ab:6f:45:f0:29:7e:0b:ba:f8:f9:fe:b2:04:
                    78:c9:18:67:04:a2:f7:8a:bc:1e:80:13:75:65:9b:
                    ae:a1:fe:4b:23:bb:cd:d9:0f:5a:66:4a:1f:e1:03:
                    bd:e9:e2:60:07:a5:01:68:90:3e:c0:7d:a9:f2:37:
                    ce:c0:de:a5:dc:34:0c:23:79:63:d6:42:b8:26:39:
                    05:d4:d6:21:00:fc:35:bf:6c:05
                Exponent: 65537 (0x10001)
        X509v3 extensions:
            X509v3 Subject Alternative Name: 
                DNS:savvyaxl.com.br, DNS:*.savvyaxl.com.br
            X509v3 Basic Constraints: 
                CA:FALSE
            X509v3 Key Usage: 
                Digital Signature, Non Repudiation, Key Encipherment
            X509v3 Extended Key Usage: 
                TLS Web Server Authentication
            X509v3 Subject Key Identifier: 
                58:8D:D3:CD:47:EC:F4:AC:B0:CD:C8:F8:05:5B:52:33:A0:BE:1F:8A
            X509v3 Authority Key Identifier: 
                69:AA:BA:3D:89:30:F0:7B:71:CB:14:9E:E8:B9:04:51:17:CF:8C:FA
    Signature Algorithm: sha256WithRSAEncryption
    Signature Value:
        9e:ab:66:5f:22:89:b2:29:fb:05:74:e2:88:8d:95:8d:6c:fb:
        be:03:a0:a6:94:f9:e5:c1:04:8a:28:be:d8:68:7f:44:cc:58:
        4c:e0:2d:b4:51:81:ca:ff:0a:c4:a8:de:e9:07:4f:11:22:a2:
        83:84:bf:09:8b:c4:12:87:67:14:aa:8a:9d:cb:9c:71:b7:69:
        6b:3f:5e:3e:ab:55:27:b2:dd:38:81:dd:46:c9:e0:b8:9c:68:
        64:67:d6:23:35:6b:a1:c9:0b:35:ef:70:3c:30:51:19:08:79:
        93:a5:81:c8:70:10:4a:7f:6e:08:6e:dc:72:f6:8e:83:b8:08:
        c1:12:2e:f2:32:6d:3d:32:91:dc:36:3e:ba:e2:43:fe:66:6f:
        b9:b7:9c:d1:b7:4d:e6:a2:9d:a7:5f:44:56:2e:8e:28:8a:f7:
        75:f4:f3:28:7d:97:0c:99:b4:2a:e5:fd:43:09:5b:bd:e1:e6:
        37:36:0a:7d:c3:60:95:06:6c:e1:b0:b8:38:7c:b8:7b:58:f9:
        5c:56:e7:86:5e:b2:2d:7f:45:ca:d9:73:6f:e3:04:c9:80:6b:
        bd:82:bd:c4:79:b6:13:2c:97:60:57:06:d3:8f:d4:58:29:03:
        dd:fd:3f:25:21:ef:a6:76:44:ee:80:fa:b7:31:2c:61:93:f3:
        89:ec:a8:7d:5f:77:b9:f3:98:b7:18:bf:76:df:1a:0c:6c:81:
        d2:d6:2e:88:50:b9:cc:55:8c:e8:4b:65:86:ee:91:86:cd:38:
        b2:ff:65:6b:9a:64:88:6f:6e:10:be:4f:b2:e9:64:1d:13:92:
        54:4d:c9:63:f0:75:2e:cb:e2:61:5b:76:74:0c:2f:c2:7f:f5:
        30:2b:8d:cd:6d:ba:b5:e6:81:8a:73:07:94:17:46:15:e3:25:
        7c:e9:d6:50:9b:5a:3d:a3:76:1b:3d:64:7a:6f:95:ca:ec:14:
        22:48:78:24:bc:75:82:d9:9a:ea:08:c6:35:25:0c:27:ae:34:
        6d:a4:dd:dd:08:fd:09:47:b4:26:41:7a:ad:75:bc:05:09:40:
        85:4b:f3:93:7e:ee:50:4a:98:05:b7:0d:47:03:4e:bb:1d:ec:
        07:55:a3:3a:a7:81:ea:77:d2:c5:4f:06:64:59:a3:fe:7c:4e:
        e2:a0:54:a0:5e:ef:1b:27:b0:bc:3d:45:69:75:3a:26:8d:10:
        90:59:35:89:4e:9f:18:98:9e:fe:9e:55:c2:d4:69:11:fb:8f:
        88:db:aa:04:14:77:29:c2:53:7f:a2:fc:05:1f:10:02:f3:df:
        e1:94:6c:08:05:49:23:94:3c:69:6b:61:eb:33:d8:27:fa:40:
        bd:ba:85:0c:a1:aa:e1:24
-----BEGIN CERTIFICATE-----
MIIFlDCCA3ygAwIBAgIGICIHIAA8MA0GCSqGSIb3DQEBCwUAMHUxCzAJBgNVBAYT
AkJSMQ8wDQYDVQQIDAZQYXJhbmExHTAbBgNVBAcMFFNhbyBKb3NlIGRvcyBQaW5o
YWlzMREwDwYDVQQKDAhTZWN1cml0eTETMBEGA1UECwwKV2ViIFNlcnZlcjEOMAwG
A1UEAwwFTXkgQ0EwHhcNMjUwNjExMDIwOTE3WhcNMjYwNjExMDIwOTE3WjB/MQsw
CQYDVQQGEwJCUjEPMA0GA1UECAwGUGFyYW5hMR0wGwYDVQQHDBRTYW8gSm9zZSBk
b3MgUGluaGFpczERMA8GA1UECgwIU2VjdXJpdHkxEzARBgNVBAsMCldlYiBTZXJ2
ZXIxGDAWBgNVBAMMD3NhdnZ5YXhsLmNvbS5icjCCAaIwDQYJKoZIhvcNAQEBBQAD
ggGPADCCAYoCggGBAMmV/2oaTVcBpr1KZ9F00gq9W5rMoP9hEHME/PzSYOAhuXf4
7Ei77PEYXbJBxURFmKKEveBiUoqZZuhPswDTIVAGzK85BkfvvBoilyoxsqgozVNd
tzoMlZE8Q6njUGzylCsWpXNxOn4kNQ+aLCOlACfA+jI+7QExuXdUcaH1uSHrirtt
gjHMiiOXEubLtjPBjVf7X/iJt/7LmWUSTynk/15dLELZ2+67lNxtXjpauVL+/KW2
roMarGO3QRHt6d/Jdepex9CP6emNzL6FBdEraGhJpoqc+jxRrqGP77ifGGwFHm+6
gn65XBqiO//UoMTtZP3bnA4ql2RHKqidTAacq5fG80W20rpawE0CtPxkdQvqXL5b
GKGqneQrUKidpB7ItdEBNJXt4p9vO79nJfCrb0XwKX4Luvj5/rIEeMkYZwSi94q8
HoATdWWbrqH+SyO7zdkPWmZKH+EDveniYAelAWiQPsB9qfI3zsDepdw0DCN5Y9ZC
uCY5BdTWIQD8Nb9sBQIDAQABo4GfMIGcMC0GA1UdEQQmMCSCD3NhdnZ5YXhsLmNv
bS5icoIRKi5zYXZ2eWF4bC5jb20uYnIwCQYDVR0TBAIwADALBgNVHQ8EBAMCBeAw
EwYDVR0lBAwwCgYIKwYBBQUHAwEwHQYDVR0OBBYEFFiN081H7PSssM3I+AVbUjOg
vh+KMB8GA1UdIwQYMBaAFGmquj2JMPB7ccsUnui5BFEXz4z6MA0GCSqGSIb3DQEB
CwUAA4ICAQCeq2ZfIomyKfsFdOKIjZWNbPu+A6CmlPnlwQSKKL7YaH9EzFhM4C20
UYHK/wrEqN7pB08RIqKDhL8Ji8QSh2cUqoqdy5xxt2lrP14+q1Unst04gd1GyeC4
nGhkZ9YjNWuhyQs173A8MFEZCHmTpYHIcBBKf24Ibtxy9o6DuAjBEi7yMm09MpHc
Nj664kP+Zm+5t5zRt03mop2nX0RWLo4oivd19PMofZcMmbQq5f1DCVu94eY3Ngp9
w2CVBmzhsLg4fLh7WPlcVueGXrItf0XK2XNv4wTJgGu9gr3EebYTLJdgVwbTj9RY
KQPd/T8lIe+mdkTugPq3MSxhk/OJ7Kh9X3e585i3GL923xoMbIHS1i6IULnMVYzo
S2WG7pGGzTiy/2VrmmSIb24Qvk+y6WQdE5JUTclj8HUuy+JhW3Z0DC/Cf/UwK43N
bbq15oGKcweUF0YV4yV86dZQm1o9o3YbPWR6b5XK7BQiSHgkvHWC2ZrqCMY1JQwn
rjRtpN3dCP0JR7QmQXqtdbwFCUCFS/OTfu5QSpgFtw1HA067HewHVaM6p4Hqd9LF
TwZkWaP+fE7ioFSgXu8bJ7C8PUVpdTomjRCQWTWJTp8YmJ7+nlXC1GkR+4+I26oE
FHcpwlN/ovwFHxAC89/hlGwIBUkjlDxpa2HrM9gn+kC9uoUMoarhJA==
-----END CERTIFICATE-----
